target datalayout = "e-m:e-p270:32:32-p271:32:32-p272:64:64-i64:64-i128:128-f80:128-n8:16:32:64-S128"
target triple = "x86_64-pc-linux-gnu"

%struct.pmix_tma = type { ptr, ptr, ptr, ptr, ptr, ptr, ptr, ptr }
%struct.pmix_envar_t = type { ptr, ptr, i8 }

; Function Attrs: inlinehint nounwind uwtable
define internal ptr @pmix_tma_strdup(ptr noundef %0, ptr noundef %1) #1 {
  %3 = alloca ptr, align 8
  %4 = alloca ptr, align 8
  %5 = alloca ptr, align 8
  store ptr %0, ptr %4, align 8, !tbaa !8
  store ptr %1, ptr %5, align 8, !tbaa !3
  %6 = load ptr, ptr %4, align 8, !tbaa !8
  %7 = icmp ne ptr null, %6
  br i1 %7, label %8, label %15

8:                                                ; preds = %2
  %9 = load ptr, ptr %4, align 8, !tbaa !8
  %10 = getelementptr inbounds nuw %struct.pmix_tma, ptr %9, i32 0, i32 3
  %11 = load ptr, ptr %10, align 8, !tbaa !228
  %12 = load ptr, ptr %4, align 8, !tbaa !8
  %13 = load ptr, ptr %5, align 8, !tbaa !3
  %14 = call ptr %11(ptr noundef %12, ptr noundef %13)
  store ptr %14, ptr %3, align 8
  br label %18

15:                                               ; preds = %2
  %16 = load ptr, ptr %5, align 8, !tbaa !3
  %17 = call noalias ptr @strdup(ptr noundef %16) #15
  store ptr %17, ptr %3, align 8
  br label %18

18:                                               ; preds = %15, %8
  %19 = load ptr, ptr %3, align 8
  ret ptr %19
}

; Function Attrs: inlinehint nounwind uwtable
define internal void @pmix_bfrops_base_tma_envar_load(ptr noundef %0, ptr noundef %1, ptr noundef %2, i8 noundef signext %3, ptr noundef %4) #1 {
  %6 = alloca ptr, align 8
  %7 = alloca ptr, align 8
  %8 = alloca ptr, align 8
  %9 = alloca i8, align 1
  %10 = alloca ptr, align 8
  store ptr %0, ptr %6, align 8, !tbaa !51
  store ptr %1, ptr %7, align 8, !tbaa !3
  store ptr %2, ptr %8, align 8, !tbaa !3
  store i8 %3, ptr %9, align 1, !tbaa !29
  store ptr %4, ptr %10, align 8, !tbaa !8
  %11 = load ptr, ptr %7, align 8, !tbaa !3
  %12 = icmp ne ptr null, %11
  br i1 %12, label %13, label %19

13:                                               ; preds = %5
  %14 = load ptr, ptr %10, align 8, !tbaa !8
  %15 = load ptr, ptr %7, align 8, !tbaa !3
  %16 = call ptr @pmix_tma_strdup(ptr noundef %14, ptr noundef %15)
  %17 = load ptr, ptr %6, align 8, !tbaa !51
  %18 = getelementptr inbounds nuw %struct.pmix_envar_t, ptr %17, i32 0, i32 0
  store ptr %16, ptr %18, align 8, !tbaa !120
  br label %19

19:                                               ; preds = %13, %5
  %20 = load ptr, ptr %8, align 8, !tbaa !3
  %21 = icmp ne ptr null, %20
  br i1 %21, label %22, label %28

22:                                               ; preds = %19
  %23 = load ptr, ptr %10, align 8, !tbaa !8
  %24 = load ptr, ptr %8, align 8, !tbaa !3
  %25 = call ptr @pmix_tma_strdup(ptr noundef %23, ptr noundef %24)
  %26 = load ptr, ptr %6, align 8, !tbaa !51
  %27 = getelementptr inbounds nuw %struct.pmix_envar_t, ptr %26, i32 0, i32 1
  store ptr %25, ptr %27, align 8, !tbaa !122
  br label %28

28:                                               ; preds = %22, %19
  %29 = load i8, ptr %9, align 1, !tbaa !29
  %30 = load ptr, ptr %6, align 8, !tbaa !51
  %31 = getelementptr inbounds nuw %struct.pmix_envar_t, ptr %30, i32 0, i32 2
  store i8 %29, ptr %31, align 8, !tbaa !123
  ret void
}

; Function Attrs: nounwind uwtable
define void @PMIx_Envar_load(ptr noundef %0, ptr noundef %1, ptr noundef %2, i8 noundef signext %3) #0 {
  %5 = alloca ptr, align 8
  %6 = alloca ptr, align 8
  %7 = alloca ptr, align 8
  %8 = alloca i8, align 1
  store ptr %0, ptr %5, align 8, !tbaa !51
  store ptr %1, ptr %6, align 8, !tbaa !3
  store ptr %2, ptr %7, align 8, !tbaa !3
  store i8 %3, ptr %8, align 1, !tbaa !29
  %9 = load ptr, ptr %5, align 8, !tbaa !51
  %10 = load ptr, ptr %6, align 8, !tbaa !3
  %11 = load ptr, ptr %7, align 8, !tbaa !3
  %12 = load i8, ptr %8, align 1, !tbaa !29
  call void @pmix_bfrops_base_tma_envar_load(ptr noundef %9, ptr noundef %10, ptr noundef %11, i8 noundef signext %12, ptr noundef null)
  ret void
}