; Function Attrs: mustprogress nofree nounwind willreturn memory(argmem: readwrite, inaccessiblemem: readwrite) uwtable
define void @PMIx_Envar_load(ptr noundef writeonly captures(none) initializes((16, 17)) %0, ptr noundef readonly captures(address_is_null) %1, ptr noundef readonly captures(address_is_null) %2, i8 noundef signext %3) local_unnamed_addr #19 {
  %.not.i = icmp eq ptr %1, null
  br i1 %.not.i, label %7, label %5

5:                                                ; preds = %4
  %6 = tail call noalias ptr @strdup(ptr noundef nonnull readonly %1) #44
  store ptr %6, ptr %0, align 8, !tbaa !96
  br label %7

7:                                                ; preds = %5, %4
  %.not10.i = icmp eq ptr %2, null
  br i1 %.not10.i, label %pmix_bfrops_base_tma_envar_load.exit, label %8

8:                                                ; preds = %7
  %9 = tail call noalias ptr @strdup(ptr noundef nonnull readonly %2) #44
  %10 = getelementptr inbounds nuw i8, ptr %0, i64 8
  store ptr %9, ptr %10, align 8, !tbaa !98
  br label %pmix_bfrops_base_tma_envar_load.exit

pmix_bfrops_base_tma_envar_load.exit:             ; preds = %7, %8
  %11 = getelementptr inbounds nuw i8, ptr %0, i64 16
  store i8 %3, ptr %11, align 8, !tbaa !101
  ret void
}